; Function Attrs: mustprogress optsize uwtable
define noundef i32 @_ZNK5ZXing6Result11orientationEv(ptr noundef nonnull align 8 dereferenceable(211) %0) local_unnamed_addr #0 align 2 {
  %2 = getelementptr inbounds nuw i8, ptr %0, i64 104
  %3 = tail call noundef double @_ZNK5ZXing13QuadrilateralINS_6PointTIiEEE11orientationEv(ptr noundef nonnull align 4 dereferenceable(32) %2) #27
  %4 = fmul double %3, 1.800000e+02
  %5 = fdiv double %4, 0x400921FB54442D18
  %6 = tail call i64 @lround(double noundef %5) #29, !tbaa !60
  %7 = trunc i64 %6 to i32
  ret i32 %7
}